target datalayout = "e-m:e-p270:32:32-p271:32:32-p272:64:64-i64:64-i128:128-f80:128-n8:16:32:64-S128"
target triple = "x86_64-pc-linux-gnu"

%struct.Radius_scanner_state_t = type { [10 x ptr], i32, ptr, ptr, ptr, ptr, ptr, ptr, ptr, i32, i32, i32, i32, ptr, i32, i32, ptr, i32, ptr, ptr, [10 x ptr], [10 x i32], ptr }
%union._radius_attr_type_t = type { i32 }
%struct._radius_attr_info_t = type { ptr, %union._radius_attr_type_t, i32, i32, ptr, ptr, ptr, i32, i32, i32, i32, i32, i32, ptr }
%union.anon.0 = type { ptr }

; Function Attrs: nounwind uwtable
define internal void @setup_tlvs(ptr noundef %0, ptr noundef %1, ptr noundef %2) #0 {
  %4 = alloca ptr, align 8
  %5 = alloca ptr, align 8
  %6 = alloca ptr, align 8
  %7 = alloca ptr, align 8
  %8 = alloca ptr, align 8
  %9 = alloca ptr, align 8
  %10 = alloca %union.anon.0, align 8
  store ptr %0, ptr %4, align 8
  store ptr %1, ptr %5, align 8
  store ptr %2, ptr %6, align 8
  %11 = load ptr, ptr %5, align 8
  store ptr %11, ptr %7, align 8
  %12 = load ptr, ptr %6, align 8
  store ptr %12, ptr %8, align 8
  %13 = load ptr, ptr %8, align 8
  %14 = getelementptr inbounds %struct.Radius_scanner_state_t, ptr %13, i32 0, i32 3
  %15 = load ptr, ptr %14, align 8
  %16 = load ptr, ptr %7, align 8
  %17 = getelementptr inbounds %struct._radius_attr_info_t, ptr %16, i32 0, i32 0
  %18 = load ptr, ptr %17, align 8
  %19 = call i32 @g_hash_table_lookup_extended(ptr noundef %15, ptr noundef %18, ptr noundef %9, ptr noundef %10)
  %20 = icmp ne i32 %19, 0
  br i1 %20, label %21, label %32

21:                                               ; preds = %3
  %22 = load ptr, ptr %8, align 8
  %23 = getelementptr inbounds %struct.Radius_scanner_state_t, ptr %22, i32 0, i32 3
  %24 = load ptr, ptr %23, align 8
  %25 = load ptr, ptr %9, align 8
  %26 = call i32 @g_hash_table_steal(ptr noundef %24, ptr noundef %25)
  %27 = load ptr, ptr %10, align 8
  %28 = call ptr @g_array_free(ptr noundef %27, i32 noundef 0)
  %29 = load ptr, ptr %7, align 8
  %30 = getelementptr inbounds %struct._radius_attr_info_t, ptr %29, i32 0, i32 6
  store ptr %28, ptr %30, align 8
  %31 = load ptr, ptr %9, align 8
  call void @g_free(ptr noundef %31)
  br label %32

32:                                               ; preds = %21, %3
  ret void
}