; Function Attrs: nounwind uwtable
define internal void @setup_tlvs(ptr readnone captures(none) %0, ptr noundef captures(none) %1, ptr noundef readonly captures(none) %2) #0 {
  %4 = alloca ptr, align 8
  %5 = alloca %union.anon.0, align 8
  %6 = getelementptr inbounds nuw i8, ptr %2, i64 96
  %7 = load ptr, ptr %6, align 8
  %8 = load ptr, ptr %1, align 8
  %9 = call i32 @g_hash_table_lookup_extended(ptr noundef %7, ptr noundef %8, ptr noundef nonnull %4, ptr noundef nonnull %5) #29
  %.not = icmp eq i32 %9, 0
  br i1 %.not, label %18, label %10

10:                                               ; preds = %3
  %11 = load ptr, ptr %6, align 8
  %12 = load ptr, ptr %4, align 8
  %13 = call i32 @g_hash_table_steal(ptr noundef %11, ptr noundef %12) #29
  %14 = load ptr, ptr %5, align 8
  %15 = call ptr @g_array_free(ptr noundef %14, i32 noundef 0) #29
  %16 = getelementptr inbounds nuw i8, ptr %1, i64 40
  store ptr %15, ptr %16, align 8
  %17 = load ptr, ptr %4, align 8
  call void @g_free(ptr noundef %17) #29
  br label %18

18:                                               ; preds = %10, %3
  ret void
}